target datalayout = "e-m:e-p270:32:32-p271:32:32-p272:64:64-i64:64-i128:128-f80:128-n8:16:32:64-S128"
target triple = "x86_64-pc-linux-gnu"

@.str.4 = private unnamed_addr constant [5 x i8] c"VP8 \00", align 1
@.str.5 = private unnamed_addr constant [5 x i8] c"VP8L\00", align 1

; Function Attrs: inlinehint nounwind uwtable
define internal i32 @GetLE16(ptr noundef %0) #3 {
  %2 = alloca ptr, align 8
  store ptr %0, ptr %2, align 8, !tbaa !14
  %3 = load ptr, ptr %2, align 8, !tbaa !14
  %4 = getelementptr inbounds i8, ptr %3, i64 0
  %5 = load i8, ptr %4, align 1, !tbaa !34
  %6 = zext i8 %5 to i32
  %7 = shl i32 %6, 0
  %8 = load ptr, ptr %2, align 8, !tbaa !14
  %9 = getelementptr inbounds i8, ptr %8, i64 1
  %10 = load i8, ptr %9, align 1, !tbaa !34
  %11 = zext i8 %10 to i32
  %12 = shl i32 %11, 8
  %13 = or i32 %7, %12
  ret i32 %13
}

; Function Attrs: inlinehint nounwind uwtable
define internal i32 @GetLE32(ptr noundef %0) #3 {
  %2 = alloca ptr, align 8
  store ptr %0, ptr %2, align 8, !tbaa !14
  %3 = load ptr, ptr %2, align 8, !tbaa !14
  %4 = call i32 @GetLE16(ptr noundef %3)
  %5 = load ptr, ptr %2, align 8, !tbaa !14
  %6 = getelementptr inbounds i8, ptr %5, i64 2
  %7 = call i32 @GetLE16(ptr noundef %6)
  %8 = shl i32 %7, 16
  %9 = or i32 %4, %8
  ret i32 %9
}

; Function Attrs: nounwind uwtable
define internal i32 @ParseVP8Header(ptr noundef %0, ptr noundef %1, i32 noundef %2, i64 noundef %3, ptr noundef %4, ptr noundef %5) #0 {
  %7 = alloca i32, align 4
  %8 = alloca ptr, align 8
  %9 = alloca ptr, align 8
  %10 = alloca i32, align 4
  %11 = alloca i64, align 8
  %12 = alloca ptr, align 8
  %13 = alloca ptr, align 8
  %14 = alloca ptr, align 8
  %15 = alloca i32, align 4
  %16 = alloca i32, align 4
  %17 = alloca i32, align 4
  %18 = alloca i32, align 4
  %19 = alloca i32, align 4
  store ptr %0, ptr %8, align 8, !tbaa !78
  store ptr %1, ptr %9, align 8, !tbaa !124
  store i32 %2, ptr %10, align 4, !tbaa !7
  store i64 %3, ptr %11, align 8, !tbaa !15
  store ptr %4, ptr %12, align 8, !tbaa !124
  store ptr %5, ptr %13, align 8, !tbaa !16
  call void @llvm.lifetime.start.p0(i64 8, ptr %14) #7
  %20 = load ptr, ptr %8, align 8, !tbaa !78
  %21 = load ptr, ptr %20, align 8, !tbaa !14
  store ptr %21, ptr %14, align 8, !tbaa !14
  call void @llvm.lifetime.start.p0(i64 4, ptr %15) #7
  %22 = load ptr, ptr %14, align 8, !tbaa !14
  %23 = call i32 @memcmp(ptr noundef %22, ptr noundef @.str.4, i64 noundef 4) #8
  %24 = icmp ne i32 %23, 0
  %25 = xor i1 %24, true
  %26 = zext i1 %25 to i32
  store i32 %26, ptr %15, align 4, !tbaa !7
  call void @llvm.lifetime.start.p0(i64 4, ptr %16) #7
  %27 = load ptr, ptr %14, align 8, !tbaa !14
  %28 = call i32 @memcmp(ptr noundef %27, ptr noundef @.str.5, i64 noundef 4) #8
  %29 = icmp ne i32 %28, 0
  %30 = xor i1 %29, true
  %31 = zext i1 %30 to i32
  store i32 %31, ptr %16, align 4, !tbaa !7
  call void @llvm.lifetime.start.p0(i64 4, ptr %17) #7
  store i32 12, ptr %17, align 4, !tbaa !7
  %32 = load ptr, ptr %9, align 8, !tbaa !124
  %33 = load i64, ptr %32, align 8, !tbaa !15
  %34 = icmp ult i64 %33, 8
  br i1 %34, label %35, label %36

35:                                               ; preds = %6
  store i32 7, ptr %7, align 4
  store i32 1, ptr %18, align 4
  br label %91

36:                                               ; preds = %6
  %37 = load i32, ptr %15, align 4, !tbaa !7
  %38 = icmp ne i32 %37, 0
  br i1 %38, label %42, label %39

39:                                               ; preds = %36
  %40 = load i32, ptr %16, align 4, !tbaa !7
  %41 = icmp ne i32 %40, 0
  br i1 %41, label %42, label %81

42:                                               ; preds = %39, %36
  call void @llvm.lifetime.start.p0(i64 4, ptr %19) #7
  %43 = load ptr, ptr %14, align 8, !tbaa !14
  %44 = getelementptr inbounds i8, ptr %43, i64 4
  %45 = call i32 @GetLE32(ptr noundef %44)
  store i32 %45, ptr %19, align 4, !tbaa !7
  %46 = load i64, ptr %11, align 8, !tbaa !15
  %47 = icmp uge i64 %46, 12
  br i1 %47, label %48, label %55

48:                                               ; preds = %42
  %49 = load i32, ptr %19, align 4, !tbaa !7
  %50 = zext i32 %49 to i64
  %51 = load i64, ptr %11, align 8, !tbaa !15
  %52 = sub i64 %51, 12
  %53 = icmp ugt i64 %50, %52
  br i1 %53, label %54, label %55

54:                                               ; preds = %48
  store i32 3, ptr %7, align 4
  store i32 1, ptr %18, align 4
  br label %78

55:                                               ; preds = %48, %42
  %56 = load i32, ptr %10, align 4, !tbaa !7
  %57 = icmp ne i32 %56, 0
  br i1 %57, label %58, label %66

58:                                               ; preds = %55
  %59 = load i32, ptr %19, align 4, !tbaa !7
  %60 = zext i32 %59 to i64
  %61 = load ptr, ptr %9, align 8, !tbaa !124
  %62 = load i64, ptr %61, align 8, !tbaa !15
  %63 = sub i64 %62, 8
  %64 = icmp ugt i64 %60, %63
  br i1 %64, label %65, label %66

65:                                               ; preds = %58
  store i32 7, ptr %7, align 4
  store i32 1, ptr %18, align 4
  br label %78

66:                                               ; preds = %58, %55
  %67 = load i32, ptr %19, align 4, !tbaa !7
  %68 = zext i32 %67 to i64
  %69 = load ptr, ptr %12, align 8, !tbaa !124
  store i64 %68, ptr %69, align 8, !tbaa !15
  %70 = load ptr, ptr %8, align 8, !tbaa !78
  %71 = load ptr, ptr %70, align 8, !tbaa !14
  %72 = getelementptr inbounds i8, ptr %71, i64 8
  store ptr %72, ptr %70, align 8, !tbaa !14
  %73 = load ptr, ptr %9, align 8, !tbaa !124
  %74 = load i64, ptr %73, align 8, !tbaa !15
  %75 = sub i64 %74, 8
  store i64 %75, ptr %73, align 8, !tbaa !15
  %76 = load i32, ptr %16, align 4, !tbaa !7
  %77 = load ptr, ptr %13, align 8, !tbaa !16
  store i32 %76, ptr %77, align 4, !tbaa !7
  store i32 0, ptr %18, align 4
  br label %78

78:                                               ; preds = %66, %65, %54
  call void @llvm.lifetime.end.p0(i64 4, ptr %19) #7
  %79 = load i32, ptr %18, align 4
  switch i32 %79, label %91 [
    i32 0, label %80
  ]

80:                                               ; preds = %78
  br label %90

81:                                               ; preds = %39
  %82 = load ptr, ptr %14, align 8, !tbaa !14
  %83 = load ptr, ptr %9, align 8, !tbaa !124
  %84 = load i64, ptr %83, align 8, !tbaa !15
  %85 = call i32 @VP8LCheckSignature(ptr noundef %82, i64 noundef %84)
  %86 = load ptr, ptr %13, align 8, !tbaa !16
  store i32 %85, ptr %86, align 4, !tbaa !7
  %87 = load ptr, ptr %9, align 8, !tbaa !124
  %88 = load i64, ptr %87, align 8, !tbaa !15
  %89 = load ptr, ptr %12, align 8, !tbaa !124
  store i64 %88, ptr %89, align 8, !tbaa !15
  br label %90

90:                                               ; preds = %81, %80
  store i32 0, ptr %7, align 4
  store i32 1, ptr %18, align 4
  br label %91

91:                                               ; preds = %90, %78, %35
  call void @llvm.lifetime.end.p0(i64 4, ptr %17) #7
  call void @llvm.lifetime.end.p0(i64 4, ptr %16) #7
  call void @llvm.lifetime.end.p0(i64 4, ptr %15) #7
  call void @llvm.lifetime.end.p0(i64 8, ptr %14) #7
  %92 = load i32, ptr %7, align 4
  ret i32 %92
}