; Function Attrs: nounwind uwtable
define internal fastcc range(i32 0, 8) i32 @ParseVP8Header(ptr noundef nonnull captures(none) %0, ptr noundef nonnull captures(none) %1, i32 noundef %2, i64 noundef %3, ptr noundef nonnull writeonly captures(none) %4, ptr noundef nonnull writeonly captures(none) %5) unnamed_addr #0 {
  %7 = load ptr, ptr %0, align 8, !tbaa !13
  %bcmp29 = tail call i32 @bcmp(ptr noundef nonnull dereferenceable(4) %7, ptr noundef nonnull dereferenceable(4) @.str.5, i64 4)
  %.not30 = icmp eq i32 %bcmp29, 0
  %8 = zext i1 %.not30 to i32
  %9 = load i64, ptr %1, align 8, !tbaa !14
  %10 = icmp ult i64 %9, 8
  br i1 %10, label %.thread, label %11

11:                                               ; preds = %6
  %bcmp = tail call i32 @bcmp(ptr noundef nonnull dereferenceable(4) %7, ptr noundef nonnull dereferenceable(4) @.str.4, i64 4)
  %.not = icmp eq i32 %bcmp, 0
  %or.cond = select i1 %.not, i1 true, i1 %.not30
  br i1 %or.cond, label %12, label %29

12:                                               ; preds = %11
  %13 = getelementptr inbounds nuw i8, ptr %7, i64 4
  %.val.i = load i16, ptr %13, align 1
  %14 = zext i16 %.val.i to i64
  %15 = getelementptr inbounds nuw i8, ptr %7, i64 6
  %.val3.i = load i16, ptr %15, align 1
  %16 = zext i16 %.val3.i to i64
  %17 = shl nuw nsw i64 %16, 16
  %18 = or disjoint i64 %17, %14
  %19 = icmp ugt i64 %3, 11
  %20 = add i64 %3, -12
  %21 = icmp ult i64 %20, %18
  %or.cond34 = select i1 %19, i1 %21, i1 false
  br i1 %or.cond34, label %.thread, label %22

22:                                               ; preds = %12
  %.not31 = icmp ne i32 %2, 0
  %23 = add i64 %9, -8
  %24 = icmp ult i64 %23, %18
  %or.cond38 = select i1 %.not31, i1 %24, i1 false
  br i1 %or.cond38, label %.thread, label %25

25:                                               ; preds = %22
  store i64 %18, ptr %4, align 8, !tbaa !14
  %26 = getelementptr inbounds nuw i8, ptr %7, i64 8
  store ptr %26, ptr %0, align 8, !tbaa !13
  %27 = load i64, ptr %1, align 8, !tbaa !14
  %28 = add i64 %27, -8
  store i64 %28, ptr %1, align 8, !tbaa !14
  store i32 %8, ptr %5, align 4, !tbaa !3
  br label %.thread

29:                                               ; preds = %11
  %30 = tail call i32 @VP8LCheckSignature(ptr noundef nonnull %7, i64 noundef %9) #10
  store i32 %30, ptr %5, align 4, !tbaa !3
  %31 = load i64, ptr %1, align 8, !tbaa !14
  store i64 %31, ptr %4, align 8, !tbaa !14
  br label %.thread

.thread:                                          ; preds = %22, %12, %29, %25, %6
  %.0 = phi i32 [ 7, %6 ], [ 0, %25 ], [ 0, %29 ], [ 3, %12 ], [ 7, %22 ]
  ret i32 %.0
}